target datalayout = "e-m:e-p270:32:32-p271:32:32-p272:64:64-i64:64-i128:128-f80:128-n8:16:32:64-S128"
target triple = "x86_64-pc-linux-gnu"

%struct.ErrorData = type { i32, i8, i8, i8, i8, ptr, i32, ptr, ptr, ptr, i32, ptr, ptr, ptr, ptr, ptr, ptr, ptr, ptr, ptr, ptr, ptr, ptr, i32, i32, ptr, i32, ptr }

@debug_query_string = external global ptr, align 8
@log_min_error_statement = external global i32, align 4

; Function Attrs: inlinehint nounwind uwtable
define internal zeroext i1 @is_log_level_output(i32 noundef %0, i32 noundef %1) #1 {
  %3 = alloca i1, align 1
  %4 = alloca i32, align 4
  %5 = alloca i32, align 4
  store i32 %0, ptr %4, align 4
  store i32 %1, ptr %5, align 4
  %6 = load i32, ptr %4, align 4
  %7 = icmp eq i32 %6, 15
  br i1 %7, label %11, label %8

8:                                                ; preds = %2
  %9 = load i32, ptr %4, align 4
  %10 = icmp eq i32 %9, 16
  br i1 %10, label %11, label %19

11:                                               ; preds = %8, %2
  %12 = load i32, ptr %5, align 4
  %13 = icmp eq i32 %12, 15
  br i1 %13, label %17, label %14

14:                                               ; preds = %11
  %15 = load i32, ptr %5, align 4
  %16 = icmp sle i32 %15, 21
  br i1 %16, label %17, label %18

17:                                               ; preds = %14, %11
  store i1 true, ptr %3, align 1
  br label %40

18:                                               ; preds = %14
  br label %39

19:                                               ; preds = %8
  %20 = load i32, ptr %4, align 4
  %21 = icmp eq i32 %20, 20
  br i1 %21, label %22, label %23

22:                                               ; preds = %19
  store i1 false, ptr %3, align 1
  br label %40

23:                                               ; preds = %19
  %24 = load i32, ptr %5, align 4
  %25 = icmp eq i32 %24, 15
  br i1 %25, label %26, label %31

26:                                               ; preds = %23
  %27 = load i32, ptr %4, align 4
  %28 = icmp sge i32 %27, 22
  br i1 %28, label %29, label %30

29:                                               ; preds = %26
  store i1 true, ptr %3, align 1
  br label %40

30:                                               ; preds = %26
  br label %37

31:                                               ; preds = %23
  %32 = load i32, ptr %4, align 4
  %33 = load i32, ptr %5, align 4
  %34 = icmp sge i32 %32, %33
  br i1 %34, label %35, label %36

35:                                               ; preds = %31
  store i1 true, ptr %3, align 1
  br label %40

36:                                               ; preds = %31
  br label %37

37:                                               ; preds = %36, %30
  br label %38

38:                                               ; preds = %37
  br label %39

39:                                               ; preds = %38, %18
  store i1 false, ptr %3, align 1
  br label %40

40:                                               ; preds = %39, %35, %29, %22, %17
  %41 = load i1, ptr %3, align 1
  ret i1 %41
}

; Function Attrs: nounwind uwtable
define dso_local zeroext i1 @check_log_of_query(ptr noundef %0) #0 {
  %2 = alloca i1, align 1
  %3 = alloca ptr, align 8
  store ptr %0, ptr %3, align 8
  %4 = load ptr, ptr %3, align 8
  %5 = getelementptr inbounds nuw %struct.ErrorData, ptr %4, i32 0, i32 0
  %6 = load i32, ptr %5, align 8
  %7 = load i32, ptr @log_min_error_statement, align 4
  %8 = call zeroext i1 @is_log_level_output(i32 noundef %6, i32 noundef %7)
  br i1 %8, label %10, label %9

9:                                                ; preds = %1
  store i1 false, ptr %2, align 1
  br label %21

10:                                               ; preds = %1
  %11 = load ptr, ptr %3, align 8
  %12 = getelementptr inbounds nuw %struct.ErrorData, ptr %11, i32 0, i32 3
  %13 = load i8, ptr %12, align 2, !range !4, !noundef !5
  %14 = trunc i8 %13 to i1
  br i1 %14, label %15, label %16

15:                                               ; preds = %10
  store i1 false, ptr %2, align 1
  br label %21

16:                                               ; preds = %10
  %17 = load ptr, ptr @debug_query_string, align 8
  %18 = icmp eq ptr %17, null
  br i1 %18, label %19, label %20

19:                                               ; preds = %16
  store i1 false, ptr %2, align 1
  br label %21

20:                                               ; preds = %16
  store i1 true, ptr %2, align 1
  br label %21

21:                                               ; preds = %20, %19, %15, %9
  %22 = load i1, ptr %2, align 1
  ret i1 %22
}