; Function Attrs: mustprogress nofree norecurse nosync nounwind willreturn memory(read, inaccessiblemem: none) uwtable
define dso_local zeroext i1 @check_log_of_query(ptr noundef readonly captures(none) %0) local_unnamed_addr #24 {
  %2 = load i32, ptr %0, align 8
  %3 = load i32, ptr @log_min_error_statement, align 4
  %4 = add i32 %2, -15
  %or.cond.i = icmp ult i32 %4, 2
  br i1 %or.cond.i, label %5, label %7

5:                                                ; preds = %1
  %6 = icmp slt i32 %3, 22
  br i1 %6, label %14, label %is_log_level_output.exit

7:                                                ; preds = %1
  %8 = icmp eq i32 %2, 20
  br i1 %8, label %is_log_level_output.exit, label %9

9:                                                ; preds = %7
  %10 = icmp eq i32 %3, 15
  br i1 %10, label %11, label %13

11:                                               ; preds = %9
  %12 = icmp sgt i32 %2, 21
  br i1 %12, label %14, label %is_log_level_output.exit

13:                                               ; preds = %9
  %.not.i = icmp slt i32 %2, %3
  br i1 %.not.i, label %is_log_level_output.exit, label %14

14:                                               ; preds = %5, %11, %13
  %15 = getelementptr inbounds nuw i8, ptr %0, i64 6
  %16 = load i8, ptr %15, align 2, !range !4, !noundef !5
  %17 = trunc nuw i8 %16 to i1
  br i1 %17, label %is_log_level_output.exit, label %18

18:                                               ; preds = %14
  %19 = load ptr, ptr @debug_query_string, align 8
  %20 = icmp ne ptr %19, null
  br label %is_log_level_output.exit

is_log_level_output.exit:                         ; preds = %5, %11, %13, %7, %18, %14
  %.0 = phi i1 [ false, %14 ], [ %20, %18 ], [ false, %7 ], [ false, %13 ], [ false, %11 ], [ false, %5 ]
  ret i1 %.0
}